target datalayout = "e-m:e-p270:32:32-p271:32:32-p272:64:64-i64:64-i128:128-f80:128-n8:16:32:64-S128"
target triple = "x86_64-pc-linux-gnu"

%"class.std::__1::basic_string_view" = type { ptr, i64 }
%"class.std::__1::basic_string" = type { %"union.std::__1::basic_string<char>::__rep" }
%"union.std::__1::basic_string<char>::__rep" = type { %"struct.std::__1::basic_string<char>::__long" }
%"struct.std::__1::basic_string<char>::__long" = type { %struct.anon.0, i64, ptr }
%struct.anon.0 = type { i64 }

@.str.4 = private unnamed_addr constant [8 x i8] c"version\00", align 1
@.str.9 = private unnamed_addr constant [34 x i8] c"corrupt tzdb: expected whitespace\00", align 1

; Function Attrs: inlinehint mustprogress nounwind uwtable
define linkonce_odr hidden noundef i64 @_ZNSt3__118__constexpr_strlenB8ne210000IcEEmPKT_(ptr noundef %0) #3 comdat {
  %2 = alloca ptr, align 8
  store ptr %0, ptr %2, align 8, !tbaa !9
  %3 = load ptr, ptr %2, align 8, !tbaa !9
  %4 = call i64 @strlen(ptr noundef %3) #4
  ret i64 %4
}

; Function Attrs: inlinehint mustprogress nounwind uwtable
define linkonce_odr hidden noundef i64 @_ZNSt3__111char_traitsIcE6lengthB8ne210000EPKc(ptr noundef %0) #3 comdat align 2 {
  %2 = alloca ptr, align 8
  store ptr %0, ptr %2, align 8, !tbaa !9
  %3 = load ptr, ptr %2, align 8, !tbaa !9
  %4 = call noundef i64 @_ZNSt3__118__constexpr_strlenB8ne210000IcEEmPKT_(ptr noundef %3) #4
  ret i64 %4
}

; Function Attrs: inlinehint mustprogress nounwind uwtable
define linkonce_odr hidden noundef i64 @_ZNSt3__128__char_traits_length_checkedB8ne210000INS_11char_traitsIcEEEEmPKNT_9char_typeE(ptr noundef %0) #3 comdat {
  %2 = alloca ptr, align 8
  store ptr %0, ptr %2, align 8, !tbaa !9
  %3 = load ptr, ptr %2, align 8, !tbaa !9
  %4 = call noundef i64 @_ZNSt3__111char_traitsIcE6lengthB8ne210000EPKc(ptr noundef %3) #4
  ret i64 %4
}

; Function Attrs: mustprogress nounwind uwtable
define internal noundef zeroext i1 @_ZNSt3__16chronoL15__is_whitespaceB8ne210000Ei(i32 noundef %0) #1 {
  %2 = alloca i32, align 4
  store i32 %0, ptr %2, align 4, !tbaa !25
  %3 = load i32, ptr %2, align 4, !tbaa !25
  %4 = icmp eq i32 %3, 32
  br i1 %4, label %8, label %5

5:                                                ; preds = %1
  %6 = load i32, ptr %2, align 4, !tbaa !25
  %7 = icmp eq i32 %6, 9
  br label %8

8:                                                ; preds = %5, %1
  %9 = phi i1 [ true, %1 ], [ %7, %5 ]
  ret i1 %9
}

; Function Attrs: mustprogress uwtable
define internal void @_ZNSt3__16chronoL27__skip_mandatory_whitespaceB8ne210000ERNS_13basic_istreamIcNS_11char_traitsIcEEEE(ptr noundef nonnull align 8 dereferenceable(16) %0) #0 {
  %2 = alloca ptr, align 8
  store ptr %0, ptr %2, align 8, !tbaa !27
  %3 = load ptr, ptr %2, align 8, !tbaa !27
  %4 = call noundef i32 @_ZNSt3__113basic_istreamIcNS_11char_traitsIcEEE3getEv(ptr noundef nonnull align 8 dereferenceable(16) %3)
  %5 = call noundef zeroext i1 @_ZNSt3__16chronoL15__is_whitespaceB8ne210000Ei(i32 noundef %4)
  br i1 %5, label %7, label %6

6:                                                ; preds = %1
  call void @_ZNSt3__121__throw_runtime_errorEPKc(ptr noundef @.str.9) #24
  unreachable

7:                                                ; preds = %1
  %8 = load ptr, ptr %2, align 8, !tbaa !27
  call void @_ZNSt3__16chronoL26__skip_optional_whitespaceB8ne210000ERNS_13basic_istreamIcNS_11char_traitsIcEEEE(ptr noundef nonnull align 8 dereferenceable(16) %8)
  ret void
}

; Function Attrs: mustprogress nounwind uwtable
define linkonce_odr hidden void @_ZNSt3__117basic_string_viewIcNS_11char_traitsIcEEEC2B8ne210000EPKc(ptr noundef nonnull align 8 dereferenceable(16) %0, ptr noundef %1) unnamed_addr #1 comdat align 2 {
  %3 = alloca ptr, align 8
  %4 = alloca ptr, align 8
  store ptr %0, ptr %3, align 8, !tbaa !4
  store ptr %1, ptr %4, align 8, !tbaa !9
  %5 = load ptr, ptr %3, align 8
  %6 = getelementptr inbounds nuw %"class.std::__1::basic_string_view", ptr %5, i32 0, i32 0
  %7 = load ptr, ptr %4, align 8, !tbaa !9
  store ptr %7, ptr %6, align 8, !tbaa !11
  %8 = getelementptr inbounds nuw %"class.std::__1::basic_string_view", ptr %5, i32 0, i32 1
  %9 = load ptr, ptr %4, align 8, !tbaa !9
  %10 = call noundef i64 @_ZNSt3__128__char_traits_length_checkedB8ne210000INS_11char_traitsIcEEEEmPKNT_9char_typeE(ptr noundef %9) #4
  store i64 %10, ptr %8, align 8, !tbaa !14
  ret void
}

; Function Attrs: mustprogress uwtable
define internal void @_ZNSt3__16chronoL26__skip_optional_whitespaceB8ne210000ERNS_13basic_istreamIcNS_11char_traitsIcEEEE(ptr noundef nonnull align 8 dereferenceable(16) %0) #0 {
  %2 = alloca ptr, align 8
  store ptr %0, ptr %2, align 8, !tbaa !27
  br label %3

3:                                                ; preds = %7, %1
  %4 = load ptr, ptr %2, align 8, !tbaa !27
  %5 = call noundef i32 @_ZNSt3__113basic_istreamIcNS_11char_traitsIcEEE4peekEv(ptr noundef nonnull align 8 dereferenceable(16) %4)
  %6 = call noundef zeroext i1 @_ZNSt3__16chronoL15__is_whitespaceB8ne210000Ei(i32 noundef %5)
  br i1 %6, label %7, label %10

7:                                                ; preds = %3
  %8 = load ptr, ptr %2, align 8, !tbaa !27
  %9 = call noundef i32 @_ZNSt3__113basic_istreamIcNS_11char_traitsIcEEE3getEv(ptr noundef nonnull align 8 dereferenceable(16) %8)
  br label %3, !llvm.loop !86

10:                                               ; preds = %3
  ret void
}

; Function Attrs: mustprogress uwtable
define internal void @_ZNSt3__16chronoL15__parse_versionB8ne210000ERNS_13basic_istreamIcNS_11char_traitsIcEEEE(ptr dead_on_unwind noalias writable sret(%"class.std::__1::basic_string") align 8 %0, ptr noundef nonnull align 8 dereferenceable(16) %1) #0 {
  %3 = alloca ptr, align 8
  %4 = alloca ptr, align 8
  %5 = alloca %"class.std::__1::basic_string_view", align 8
  store ptr %0, ptr %3, align 8
  store ptr %1, ptr %4, align 8, !tbaa !27
  %6 = load ptr, ptr %4, align 8, !tbaa !27
  call void @_ZNSt3__16chronoL9__matchesB8ne210000ERNS_13basic_istreamIcNS_11char_traitsIcEEEEc(ptr noundef nonnull align 8 dereferenceable(16) %6, i8 noundef signext 35)
  %7 = load ptr, ptr %4, align 8, !tbaa !27
  call void @_ZNSt3__16chronoL26__skip_optional_whitespaceB8ne210000ERNS_13basic_istreamIcNS_11char_traitsIcEEEE(ptr noundef nonnull align 8 dereferenceable(16) %7)
  %8 = load ptr, ptr %4, align 8, !tbaa !27
  call void @_ZNSt3__117basic_string_viewIcNS_11char_traitsIcEEEC2B8ne210000EPKc(ptr noundef nonnull align 8 dereferenceable(16) %5, ptr noundef @.str.4)
  %9 = getelementptr inbounds nuw { ptr, i64 }, ptr %5, i32 0, i32 0
  %10 = load ptr, ptr %9, align 8
  %11 = getelementptr inbounds nuw { ptr, i64 }, ptr %5, i32 0, i32 1
  %12 = load i64, ptr %11, align 8
  call void @_ZNSt3__16chronoL9__matchesB8ne210000ERNS_13basic_istreamIcNS_11char_traitsIcEEEENS_17basic_string_viewIcS3_EE(ptr noundef nonnull align 8 dereferenceable(16) %8, ptr %10, i64 %12)
  %13 = load ptr, ptr %4, align 8, !tbaa !27
  call void @_ZNSt3__16chronoL27__skip_mandatory_whitespaceB8ne210000ERNS_13basic_istreamIcNS_11char_traitsIcEEEE(ptr noundef nonnull align 8 dereferenceable(16) %13)
  %14 = load ptr, ptr %4, align 8, !tbaa !27
  call void @_ZNSt3__16chronoL14__parse_stringB8ne210000ERNS_13basic_istreamIcNS_11char_traitsIcEEEE(ptr dead_on_unwind writable sret(%"class.std::__1::basic_string") align 8 %0, ptr noundef nonnull align 8 dereferenceable(16) %14)
  ret void
}