; Function Attrs: mustprogress uwtable
define internal fastcc void @_ZNSt3__16chronoL15__parse_versionB8ne210000ERNS_13basic_istreamIcNS_11char_traitsIcEEEE(ptr dead_on_unwind noalias writable align 8 %0, ptr noundef nonnull align 8 dereferenceable(16) %1) unnamed_addr #0 {
  tail call fastcc void @_ZNSt3__16chronoL9__matchesB8ne210000ERNS_13basic_istreamIcNS_11char_traitsIcEEEEc(ptr noundef nonnull align 8 dereferenceable(16) %1, i8 noundef signext 35)
  br label %3

3:                                                ; preds = %5, %2
  %4 = tail call noundef i32 @_ZNSt3__113basic_istreamIcNS_11char_traitsIcEEE4peekEv(ptr noundef nonnull align 8 dereferenceable(16) %1)
  switch i32 %4, label %_ZNSt3__16chronoL26__skip_optional_whitespaceB8ne210000ERNS_13basic_istreamIcNS_11char_traitsIcEEEE.exit [
    i32 32, label %5
    i32 9, label %5
  ]

5:                                                ; preds = %3, %3
  %6 = tail call noundef i32 @_ZNSt3__113basic_istreamIcNS_11char_traitsIcEEE3getEv(ptr noundef nonnull align 8 dereferenceable(16) %1)
  br label %3, !llvm.loop !18

_ZNSt3__16chronoL26__skip_optional_whitespaceB8ne210000ERNS_13basic_istreamIcNS_11char_traitsIcEEEE.exit: ; preds = %3
  tail call fastcc void @_ZNSt3__16chronoL9__matchesB8ne210000ERNS_13basic_istreamIcNS_11char_traitsIcEEEENS_17basic_string_viewIcS3_EE(ptr noundef nonnull align 8 dereferenceable(16) %1, ptr nonnull @.str.4, i64 7)
  %7 = tail call noundef i32 @_ZNSt3__113basic_istreamIcNS_11char_traitsIcEEE3getEv(ptr noundef nonnull align 8 dereferenceable(16) %1)
  switch i32 %7, label %8 [
    i32 32, label %.preheader
    i32 9, label %.preheader
  ]

.preheader:                                       ; preds = %_ZNSt3__16chronoL26__skip_optional_whitespaceB8ne210000ERNS_13basic_istreamIcNS_11char_traitsIcEEEE.exit, %_ZNSt3__16chronoL26__skip_optional_whitespaceB8ne210000ERNS_13basic_istreamIcNS_11char_traitsIcEEEE.exit
  br label %9

8:                                                ; preds = %_ZNSt3__16chronoL26__skip_optional_whitespaceB8ne210000ERNS_13basic_istreamIcNS_11char_traitsIcEEEE.exit
  tail call void @_ZNSt3__121__throw_runtime_errorEPKc(ptr noundef nonnull @.str.9) #33
  unreachable

9:                                                ; preds = %.preheader, %11
  %10 = tail call noundef i32 @_ZNSt3__113basic_istreamIcNS_11char_traitsIcEEE4peekEv(ptr noundef nonnull align 8 dereferenceable(16) %1)
  switch i32 %10, label %_ZNSt3__16chronoL27__skip_mandatory_whitespaceB8ne210000ERNS_13basic_istreamIcNS_11char_traitsIcEEEE.exit [
    i32 32, label %11
    i32 9, label %11
  ]

11:                                               ; preds = %9, %9
  %12 = tail call noundef i32 @_ZNSt3__113basic_istreamIcNS_11char_traitsIcEEE3getEv(ptr noundef nonnull align 8 dereferenceable(16) %1)
  br label %9, !llvm.loop !18

_ZNSt3__16chronoL27__skip_mandatory_whitespaceB8ne210000ERNS_13basic_istreamIcNS_11char_traitsIcEEEE.exit: ; preds = %9
  tail call fastcc void @_ZNSt3__16chronoL14__parse_stringB8ne210000ERNS_13basic_istreamIcNS_11char_traitsIcEEEE(ptr dead_on_unwind noalias writable align 8 %0, ptr noundef nonnull align 8 dereferenceable(16) %1)
  ret void
}